; ModuleID = '54/162.c'
source_filename = "54/162.c"
target datalayout = "e-m:e-p270:32:32-p271:32:32-p272:64:64-i64:64-f80:128-n8:16:32:64-S128"
target triple = "x86_64-pc-linux-gnu"

@.str = private unnamed_addr constant [6 x i8] c"%d %d\00", align 1
@.str.1 = private unnamed_addr constant [3 x i8] c"%d\00", align 1

; Function Attrs: noinline nounwind uwtable
define dso_local void @main() #0 {
  %1 = alloca i32, align 4
  %2 = alloca i32, align 4
  %3 = alloca i32, align 4
  %4 = alloca i32, align 4
  %5 = alloca i32, align 4
  %6 = alloca i32, align 4
  %7 = alloca i32, align 4
  %8 = call i32 (i8*, ...) @__isoc99_scanf(i8* getelementptr inbounds ([6 x i8], [6 x i8]* @.str, i64 0, i64 0), i32* %1, i32* %2)
  store i32 0, i32* %3, align 4
  br label %9

9:                                                ; preds = %29, %0
  %10 = load i32, i32* %3, align 4
  %11 = add nsw i32 %10, 1
  store i32 %11, i32* %3, align 4
  %12 = load i32, i32* %3, align 4
  store i32 %12, i32* %4, align 4
  store i32 1, i32* %6, align 4
  br label %13

13:                                               ; preds = %36, %9
  %14 = load i32, i32* %6, align 4
  %15 = load i32, i32* %1, align 4
  %16 = icmp slt i32 %14, %15
  br i1 %16, label %17, label %39

17:                                               ; preds = %13
  %18 = load i32, i32* %1, align 4
  %19 = load i32, i32* %4, align 4
  %20 = mul nsw i32 %18, %19
  %21 = load i32, i32* %2, align 4
  %22 = add nsw i32 %20, %21
  store i32 %22, i32* %7, align 4
  %23 = load i32, i32* %7, align 4
  %24 = load i32, i32* %1, align 4
  %25 = sub nsw i32 %24, 1
  %26 = srem i32 %23, %25
  store i32 %26, i32* %5, align 4
  %27 = load i32, i32* %5, align 4
  %28 = icmp ne i32 %27, 0
  br i1 %28, label %29, label %30

29:                                               ; preds = %17
  br label %9

30:                                               ; preds = %17
  %31 = load i32, i32* %7, align 4
  %32 = load i32, i32* %1, align 4
  %33 = sub nsw i32 %32, 1
  %34 = sdiv i32 %31, %33
  store i32 %34, i32* %4, align 4
  br label %35

35:                                               ; preds = %30
  br label %36

36:                                               ; preds = %35
  %37 = load i32, i32* %6, align 4
  %38 = add nsw i32 %37, 1
  store i32 %38, i32* %6, align 4
  br label %13

39:                                               ; preds = %13
  %40 = load i32, i32* %4, align 4
  %41 = load i32, i32* %1, align 4
  %42 = mul nsw i32 %40, %41
  %43 = load i32, i32* %2, align 4
  %44 = add nsw i32 %42, %43
  %45 = call i32 (i8*, ...) @printf(i8* getelementptr inbounds ([3 x i8], [3 x i8]* @.str.1, i64 0, i64 0), i32 %44)
  ret void
}

declare dso_local i32 @__isoc99_scanf(i8*, ...) #1

declare dso_local i32 @printf(i8*, ...) #1


!llvm.module.flags = !{!0}
!llvm.ident = !{!1}

!0 = !{i32 1, !"wchar_size", i32 4}
!1 = !{!"clang version 10.0.0-4ubuntu1 "}
